target datalayout = "e-m:e-p270:32:32-p271:32:32-p272:64:64-i64:64-i128:128-f80:128-n8:16:32:64-S128"
target triple = "x86_64-pc-linux-gnu"

%"class.pstd::pmr::polymorphic_allocator" = type { ptr }
%"class.pstd::vector.112" = type { %"class.pstd::pmr::polymorphic_allocator.113", ptr, i64, i64 }
%"class.pstd::pmr::polymorphic_allocator.113" = type { ptr }

@_ZN4pbrt13BilinearPatch9allMeshesE = dso_local global ptr null, align 8

; Function Attrs: mustprogress uwtable
define linkonce_odr dso_local noundef ptr @_ZN4pstd3pmr15memory_resource8allocateEmm(ptr noundef nonnull align 8 dereferenceable(8) %0, i64 noundef %1, i64 noundef %2) #1 comdat align 2 {
  %4 = alloca ptr, align 8
  %5 = alloca ptr, align 8
  %6 = alloca i64, align 8
  %7 = alloca i64, align 8
  store ptr %0, ptr %5, align 8, !tbaa !335
  store i64 %1, ptr %6, align 8, !tbaa !146
  store i64 %2, ptr %7, align 8, !tbaa !146
  %8 = load ptr, ptr %5, align 8
  %9 = load i64, ptr %6, align 8, !tbaa !146
  %10 = icmp eq i64 %9, 0
  br i1 %10, label %11, label %12

11:                                               ; preds = %3
  store ptr null, ptr %4, align 8
  br label %19

12:                                               ; preds = %3
  %13 = load i64, ptr %6, align 8, !tbaa !146
  %14 = load i64, ptr %7, align 8, !tbaa !146
  %15 = load ptr, ptr %8, align 8, !tbaa !497
  %16 = getelementptr inbounds ptr, ptr %15, i64 2
  %17 = load ptr, ptr %16, align 8
  %18 = call noundef ptr %17(ptr noundef nonnull align 8 dereferenceable(8) %8, i64 noundef %13, i64 noundef %14)
  store ptr %18, ptr %4, align 8
  br label %19

19:                                               ; preds = %12, %11
  %20 = load ptr, ptr %4, align 8
  ret ptr %20
}

; Function Attrs: mustprogress nounwind uwtable
define linkonce_odr dso_local noundef ptr @_ZNK4pstd3pmr21polymorphic_allocatorISt4byteE8resourceEv(ptr noundef nonnull align 8 dereferenceable(8) %0) #6 comdat align 2 {
  %2 = alloca ptr, align 8
  store ptr %0, ptr %2, align 8, !tbaa !102
  %3 = load ptr, ptr %2, align 8
  %4 = getelementptr inbounds nuw %"class.pstd::pmr::polymorphic_allocator", ptr %3, i32 0, i32 0
  %5 = load ptr, ptr %4, align 8, !tbaa !586
  ret ptr %5
}

; Function Attrs: mustprogress nounwind uwtable
define linkonce_odr dso_local void @_ZN4pstd6vectorIPKN4pbrt17BilinearPatchMeshENS_3pmr21polymorphic_allocatorIS4_EEEC2ERKS7_(ptr noundef nonnull align 8 dereferenceable(32) %0, ptr noundef nonnull align 8 dereferenceable(8) %1) unnamed_addr #6 comdat align 2 {
  %3 = alloca ptr, align 8
  %4 = alloca ptr, align 8
  store ptr %0, ptr %3, align 8, !tbaa !372
  store ptr %1, ptr %4, align 8, !tbaa !927
  %5 = load ptr, ptr %3, align 8
  %6 = getelementptr inbounds nuw %"class.pstd::vector.112", ptr %5, i32 0, i32 0
  %7 = load ptr, ptr %4, align 8, !tbaa !927
  call void @llvm.memcpy.p0.p0.i64(ptr align 8 %6, ptr align 8 %7, i64 8, i1 false), !tbaa.struct !334
  %8 = getelementptr inbounds nuw %"class.pstd::vector.112", ptr %5, i32 0, i32 1
  store ptr null, ptr %8, align 8, !tbaa !385
  %9 = getelementptr inbounds nuw %"class.pstd::vector.112", ptr %5, i32 0, i32 2
  store i64 0, ptr %9, align 8, !tbaa !384
  %10 = getelementptr inbounds nuw %"class.pstd::vector.112", ptr %5, i32 0, i32 3
  store i64 0, ptr %10, align 8, !tbaa !379
  ret void
}

; Function Attrs: mustprogress nounwind uwtable
define linkonce_odr dso_local void @_ZN4pstd3pmr21polymorphic_allocatorIPKN4pbrt17BilinearPatchMeshEEC2ISt4byteEERKNS1_IT_EE(ptr noundef nonnull align 8 dereferenceable(8) %0, ptr noundef nonnull align 8 dereferenceable(8) %1) unnamed_addr #6 comdat align 2 {
  %3 = alloca ptr, align 8
  %4 = alloca ptr, align 8
  store ptr %0, ptr %3, align 8, !tbaa !927
  store ptr %1, ptr %4, align 8, !tbaa !102
  %5 = load ptr, ptr %3, align 8
  %6 = getelementptr inbounds nuw %"class.pstd::pmr::polymorphic_allocator.113", ptr %5, i32 0, i32 0
  %7 = load ptr, ptr %4, align 8, !tbaa !102
  %8 = call noundef ptr @_ZNK4pstd3pmr21polymorphic_allocatorISt4byteE8resourceEv(ptr noundef nonnull align 8 dereferenceable(8) %7)
  store ptr %8, ptr %6, align 8, !tbaa !929
  ret void
}

; Function Attrs: mustprogress uwtable
define linkonce_odr dso_local noundef ptr @_ZN4pstd3pmr21polymorphic_allocatorISt4byteE14allocate_bytesEmm(ptr noundef nonnull align 8 dereferenceable(8) %0, i64 noundef %1, i64 noundef %2) #1 comdat align 2 {
  %4 = alloca ptr, align 8
  %5 = alloca i64, align 8
  %6 = alloca i64, align 8
  store ptr %0, ptr %4, align 8, !tbaa !102
  store i64 %1, ptr %5, align 8, !tbaa !146
  store i64 %2, ptr %6, align 8, !tbaa !146
  %7 = load ptr, ptr %4, align 8
  %8 = call noundef ptr @_ZNK4pstd3pmr21polymorphic_allocatorISt4byteE8resourceEv(ptr noundef nonnull align 8 dereferenceable(8) %7)
  %9 = load i64, ptr %5, align 8, !tbaa !146
  %10 = load i64, ptr %6, align 8, !tbaa !146
  %11 = call noundef ptr @_ZN4pstd3pmr15memory_resource8allocateEmm(ptr noundef nonnull align 8 dereferenceable(8) %8, i64 noundef %9, i64 noundef %10)
  ret ptr %11
}

; Function Attrs: mustprogress uwtable
define linkonce_odr dso_local void @_ZN4pstd3pmr21polymorphic_allocatorISt4byteE9constructINS_6vectorIPKN4pbrt17BilinearPatchMeshENS1_IS9_EEEEJRS3_EEEvPT_DpOT0_(ptr noundef nonnull align 8 dereferenceable(8) %0, ptr noundef %1, ptr noundef nonnull align 8 dereferenceable(8) %2) #1 comdat align 2 {
  %4 = alloca ptr, align 8
  %5 = alloca ptr, align 8
  %6 = alloca ptr, align 8
  %7 = alloca %"class.pstd::pmr::polymorphic_allocator.113", align 8
  store ptr %0, ptr %4, align 8, !tbaa !102
  store ptr %1, ptr %5, align 8, !tbaa !372
  store ptr %2, ptr %6, align 8, !tbaa !102
  %8 = load ptr, ptr %5, align 8, !tbaa !372
  call void @llvm.lifetime.start.p0(i64 8, ptr %7) #23
  %9 = load ptr, ptr %6, align 8, !tbaa !102
  call void @_ZN4pstd3pmr21polymorphic_allocatorIPKN4pbrt17BilinearPatchMeshEEC2ISt4byteEERKNS1_IT_EE(ptr noundef nonnull align 8 dereferenceable(8) %7, ptr noundef nonnull align 8 dereferenceable(8) %9) #23
  call void @_ZN4pstd6vectorIPKN4pbrt17BilinearPatchMeshENS_3pmr21polymorphic_allocatorIS4_EEEC2ERKS7_(ptr noundef nonnull align 8 dereferenceable(32) %8, ptr noundef nonnull align 8 dereferenceable(8) %7)
  call void @llvm.lifetime.end.p0(i64 8, ptr %7) #23
  ret void
}

; Function Attrs: mustprogress uwtable
define linkonce_odr dso_local noundef ptr @_ZN4pstd3pmr21polymorphic_allocatorISt4byteE15allocate_objectINS_6vectorIPKN4pbrt17BilinearPatchMeshENS1_IS9_EEEEEEPT_m(ptr noundef nonnull align 8 dereferenceable(8) %0, i64 noundef %1) #1 comdat align 2 {
  %3 = alloca ptr, align 8
  %4 = alloca i64, align 8
  store ptr %0, ptr %3, align 8, !tbaa !102
  store i64 %1, ptr %4, align 8, !tbaa !146
  %5 = load ptr, ptr %3, align 8
  %6 = load i64, ptr %4, align 8, !tbaa !146
  %7 = mul i64 %6, 32
  %8 = call noundef ptr @_ZN4pstd3pmr21polymorphic_allocatorISt4byteE14allocate_bytesEmm(ptr noundef nonnull align 8 dereferenceable(8) %5, i64 noundef %7, i64 noundef 8)
  ret ptr %8
}

; Function Attrs: mustprogress uwtable
define linkonce_odr dso_local noundef ptr @_ZN4pstd3pmr21polymorphic_allocatorISt4byteE10new_objectINS_6vectorIPKN4pbrt17BilinearPatchMeshENS1_IS9_EEEEJRS3_EEEPT_DpOT0_(ptr noundef nonnull align 8 dereferenceable(8) %0, ptr noundef nonnull align 8 dereferenceable(8) %1) #1 comdat align 2 {
  %3 = alloca ptr, align 8
  %4 = alloca ptr, align 8
  %5 = alloca ptr, align 8
  store ptr %0, ptr %3, align 8, !tbaa !102
  store ptr %1, ptr %4, align 8, !tbaa !102
  %6 = load ptr, ptr %3, align 8
  call void @llvm.lifetime.start.p0(i64 8, ptr %5) #23
  %7 = call noundef ptr @_ZN4pstd3pmr21polymorphic_allocatorISt4byteE15allocate_objectINS_6vectorIPKN4pbrt17BilinearPatchMeshENS1_IS9_EEEEEEPT_m(ptr noundef nonnull align 8 dereferenceable(8) %6, i64 noundef 1)
  store ptr %7, ptr %5, align 8, !tbaa !372
  %8 = load ptr, ptr %5, align 8, !tbaa !372
  %9 = load ptr, ptr %4, align 8, !tbaa !102
  call void @_ZN4pstd3pmr21polymorphic_allocatorISt4byteE9constructINS_6vectorIPKN4pbrt17BilinearPatchMeshENS1_IS9_EEEEJRS3_EEEvPT_DpOT0_(ptr noundef nonnull align 8 dereferenceable(8) %6, ptr noundef %8, ptr noundef nonnull align 8 dereferenceable(8) %9)
  %10 = load ptr, ptr %5, align 8, !tbaa !372
  call void @llvm.lifetime.end.p0(i64 8, ptr %5) #23
  ret ptr %10
}

; Function Attrs: mustprogress uwtable
define dso_local void @_ZN4pbrt13BilinearPatch4InitEN4pstd3pmr21polymorphic_allocatorISt4byteEE(ptr %0) #1 align 2 {
  %2 = alloca %"class.pstd::pmr::polymorphic_allocator", align 8
  %3 = getelementptr inbounds nuw %"class.pstd::pmr::polymorphic_allocator", ptr %2, i32 0, i32 0
  store ptr %0, ptr %3, align 8
  %4 = call noundef ptr @_ZN4pstd3pmr21polymorphic_allocatorISt4byteE10new_objectINS_6vectorIPKN4pbrt17BilinearPatchMeshENS1_IS9_EEEEJRS3_EEEPT_DpOT0_(ptr noundef nonnull align 8 dereferenceable(8) %2, ptr noundef nonnull align 8 dereferenceable(8) %2)
  store ptr %4, ptr @_ZN4pbrt13BilinearPatch9allMeshesE, align 8, !tbaa !372
  ret void
}