; Function Attrs: mustprogress uwtable
define dso_local void @_ZN4pbrt13BilinearPatch4InitEN4pstd3pmr21polymorphic_allocatorISt4byteEE(ptr %0) local_unnamed_addr #4 align 2 {
  %2 = load ptr, ptr %0, align 8, !tbaa !56
  %3 = getelementptr inbounds nuw i8, ptr %2, i64 16
  %4 = load ptr, ptr %3, align 8
  %5 = tail call noundef ptr %4(ptr noundef nonnull align 8 dereferenceable(8) %0, i64 noundef 32, i64 noundef 8)
  %6 = ptrtoint ptr %0 to i64
  store i64 %6, ptr %5, align 8, !tbaa !87
  %7 = getelementptr inbounds nuw i8, ptr %5, i64 8
  tail call void @llvm.memset.p0.i64(ptr noundef nonnull align 8 dereferenceable(24) %7, i8 0, i64 24, i1 false)
  store ptr %5, ptr @_ZN4pbrt13BilinearPatch9allMeshesE, align 8, !tbaa !345
  ret void
}